target datalayout = "e-m:e-p270:32:32-p271:32:32-p272:64:64-i64:64-i128:128-f80:128-n8:16:32:64-S128"
target triple = "x86_64-pc-linux-gnu"

; Function Attrs: nounwind uwtable
define hidden i32 @PixelForUshort565Rgb(ptr noundef %0, i32 noundef %1) #1 {
  %3 = alloca ptr, align 8
  %4 = alloca i32, align 4
  store ptr %0, ptr %3, align 8
  store i32 %1, ptr %4, align 4
  %5 = load i32, ptr %4, align 4
  %6 = ashr i32 %5, 8
  %7 = and i32 %6, 63488
  %8 = load i32, ptr %4, align 4
  %9 = ashr i32 %8, 5
  %10 = and i32 %9, 2016
  %11 = or i32 %7, %10
  %12 = load i32, ptr %4, align 4
  %13 = ashr i32 %12, 3
  %14 = and i32 %13, 31
  %15 = or i32 %11, %14
  %16 = trunc i32 %15 to i16
  %17 = zext i16 %16 to i32
  ret i32 %17
}