; Function Attrs: mustprogress nofree norecurse nosync nounwind willreturn memory(none) uwtable
define hidden range(i32 0, 65536) i32 @PixelForUshort565Rgb(ptr nocapture noundef readnone %0, i32 noundef %1) local_unnamed_addr #3 {
  %3 = lshr i32 %1, 8
  %4 = and i32 %3, 63488
  %5 = lshr i32 %1, 5
  %6 = and i32 %5, 2016
  %7 = or disjoint i32 %4, %6
  %8 = lshr i32 %1, 3
  %9 = and i32 %8, 31
  %10 = or disjoint i32 %7, %9
  ret i32 %10
}